; ModuleID = '29/1127.c'
source_filename = "29/1127.c"
target datalayout = "e-m:e-p270:32:32-p271:32:32-p272:64:64-i64:64-f80:128-n8:16:32:64-S128"
target triple = "x86_64-pc-linux-gnu"

@.str = private unnamed_addr constant [3 x i8] c"%d\00", align 1
@.str.1 = private unnamed_addr constant [7 x i8] c"%.3lf\0A\00", align 1

; Function Attrs: noinline nounwind uwtable
define dso_local i32 @main() #0 {
  %1 = alloca i32, align 4
  %2 = alloca i32, align 4
  %3 = alloca i32, align 4
  %4 = alloca i32, align 4
  %5 = alloca [100 x i32], align 16
  %6 = alloca [100 x double], align 16
  %7 = alloca [100 x double], align 16
  %8 = alloca double, align 8
  %9 = alloca double, align 8
  store i32 0, i32* %1, align 4
  store double 0.000000e+00, double* %8, align 8
  store double 0.000000e+00, double* %9, align 8
  %10 = call i32 (i8*, ...) @__isoc99_scanf(i8* getelementptr inbounds ([3 x i8], [3 x i8]* @.str, i64 0, i64 0), i32* %2)
  store i32 0, i32* %3, align 4
  br label %11

11:                                               ; preds = %20, %0
  %12 = load i32, i32* %3, align 4
  %13 = load i32, i32* %2, align 4
  %14 = icmp slt i32 %12, %13
  br i1 %14, label %15, label %23

15:                                               ; preds = %11
  %16 = load i32, i32* %3, align 4
  %17 = sext i32 %16 to i64
  %18 = getelementptr inbounds [100 x i32], [100 x i32]* %5, i64 0, i64 %17
  %19 = call i32 (i8*, ...) @__isoc99_scanf(i8* getelementptr inbounds ([3 x i8], [3 x i8]* @.str, i64 0, i64 0), i32* %18)
  br label %20

20:                                               ; preds = %15
  %21 = load i32, i32* %3, align 4
  %22 = add nsw i32 %21, 1
  store i32 %22, i32* %3, align 4
  br label %11

23:                                               ; preds = %11
  %24 = getelementptr inbounds [100 x double], [100 x double]* %6, i64 0, i64 0
  store double 2.000000e+00, double* %24, align 16
  %25 = getelementptr inbounds [100 x double], [100 x double]* %6, i64 0, i64 1
  store double 3.000000e+00, double* %25, align 8
  store i32 0, i32* %3, align 4
  br label %26

26:                                               ; preds = %57, %23
  %27 = load i32, i32* %3, align 4
  %28 = load i32, i32* %2, align 4
  %29 = icmp slt i32 %27, %28
  br i1 %29, label %30, label %60

30:                                               ; preds = %26
  store i32 2, i32* %4, align 4
  br label %31

31:                                               ; preds = %53, %30
  %32 = load i32, i32* %4, align 4
  %33 = load i32, i32* %3, align 4
  %34 = sext i32 %33 to i64
  %35 = getelementptr inbounds [100 x i32], [100 x i32]* %5, i64 0, i64 %34
  %36 = load i32, i32* %35, align 4
  %37 = icmp slt i32 %32, %36
  br i1 %37, label %38, label %56

38:                                               ; preds = %31
  %39 = load i32, i32* %4, align 4
  %40 = sub nsw i32 %39, 1
  %41 = sext i32 %40 to i64
  %42 = getelementptr inbounds [100 x double], [100 x double]* %6, i64 0, i64 %41
  %43 = load double, double* %42, align 8
  %44 = load i32, i32* %4, align 4
  %45 = sub nsw i32 %44, 2
  %46 = sext i32 %45 to i64
  %47 = getelementptr inbounds [100 x double], [100 x double]* %6, i64 0, i64 %46
  %48 = load double, double* %47, align 8
  %49 = fadd double %43, %48
  %50 = load i32, i32* %4, align 4
  %51 = sext i32 %50 to i64
  %52 = getelementptr inbounds [100 x double], [100 x double]* %6, i64 0, i64 %51
  store double %49, double* %52, align 8
  br label %53

53:                                               ; preds = %38
  %54 = load i32, i32* %4, align 4
  %55 = add nsw i32 %54, 1
  store i32 %55, i32* %4, align 4
  br label %31

56:                                               ; preds = %31
  br label %57

57:                                               ; preds = %56
  %58 = load i32, i32* %3, align 4
  %59 = add nsw i32 %58, 1
  store i32 %59, i32* %3, align 4
  br label %26

60:                                               ; preds = %26
  %61 = getelementptr inbounds [100 x double], [100 x double]* %7, i64 0, i64 0
  store double 1.000000e+00, double* %61, align 16
  %62 = getelementptr inbounds [100 x double], [100 x double]* %7, i64 0, i64 1
  store double 2.000000e+00, double* %62, align 8
  store i32 0, i32* %3, align 4
  br label %63

63:                                               ; preds = %94, %60
  %64 = load i32, i32* %3, align 4
  %65 = load i32, i32* %2, align 4
  %66 = icmp slt i32 %64, %65
  br i1 %66, label %67, label %97

67:                                               ; preds = %63
  store i32 2, i32* %4, align 4
  br label %68

68:                                               ; preds = %90, %67
  %69 = load i32, i32* %4, align 4
  %70 = load i32, i32* %3, align 4
  %71 = sext i32 %70 to i64
  %72 = getelementptr inbounds [100 x i32], [100 x i32]* %5, i64 0, i64 %71
  %73 = load i32, i32* %72, align 4
  %74 = icmp slt i32 %69, %73
  br i1 %74, label %75, label %93

75:                                               ; preds = %68
  %76 = load i32, i32* %4, align 4
  %77 = sub nsw i32 %76, 1
  %78 = sext i32 %77 to i64
  %79 = getelementptr inbounds [100 x double], [100 x double]* %7, i64 0, i64 %78
  %80 = load double, double* %79, align 8
  %81 = load i32, i32* %4, align 4
  %82 = sub nsw i32 %81, 2
  %83 = sext i32 %82 to i64
  %84 = getelementptr inbounds [100 x double], [100 x double]* %7, i64 0, i64 %83
  %85 = load double, double* %84, align 8
  %86 = fadd double %80, %85
  %87 = load i32, i32* %4, align 4
  %88 = sext i32 %87 to i64
  %89 = getelementptr inbounds [100 x double], [100 x double]* %7, i64 0, i64 %88
  store double %86, double* %89, align 8
  br label %90

90:                                               ; preds = %75
  %91 = load i32, i32* %4, align 4
  %92 = add nsw i32 %91, 1
  store i32 %92, i32* %4, align 4
  br label %68

93:                                               ; preds = %68
  br label %94

94:                                               ; preds = %93
  %95 = load i32, i32* %3, align 4
  %96 = add nsw i32 %95, 1
  store i32 %96, i32* %3, align 4
  br label %63

97:                                               ; preds = %63
  store i32 0, i32* %3, align 4
  br label %98

98:                                               ; preds = %129, %97
  %99 = load i32, i32* %3, align 4
  %100 = load i32, i32* %2, align 4
  %101 = icmp slt i32 %99, %100
  br i1 %101, label %102, label %132

102:                                              ; preds = %98
  store double 0.000000e+00, double* %9, align 8
  store double 0.000000e+00, double* %8, align 8
  store i32 0, i32* %4, align 4
  br label %103

103:                                              ; preds = %123, %102
  %104 = load i32, i32* %4, align 4
  %105 = load i32, i32* %3, align 4
  %106 = sext i32 %105 to i64
  %107 = getelementptr inbounds [100 x i32], [100 x i32]* %5, i64 0, i64 %106
  %108 = load i32, i32* %107, align 4
  %109 = icmp slt i32 %104, %108
  br i1 %109, label %110, label %126

110:                                              ; preds = %103
  %111 = load i32, i32* %4, align 4
  %112 = sext i32 %111 to i64
  %113 = getelementptr inbounds [100 x double], [100 x double]* %6, i64 0, i64 %112
  %114 = load double, double* %113, align 8
  %115 = load i32, i32* %4, align 4
  %116 = sext i32 %115 to i64
  %117 = getelementptr inbounds [100 x double], [100 x double]* %7, i64 0, i64 %116
  %118 = load double, double* %117, align 8
  %119 = fdiv double %114, %118
  store double %119, double* %8, align 8
  %120 = load double, double* %9, align 8
  %121 = load double, double* %8, align 8
  %122 = fadd double %120, %121
  store double %122, double* %9, align 8
  br label %123

123:                                              ; preds = %110
  %124 = load i32, i32* %4, align 4
  %125 = add nsw i32 %124, 1
  store i32 %125, i32* %4, align 4
  br label %103

126:                                              ; preds = %103
  %127 = load double, double* %9, align 8
  %128 = call i32 (i8*, ...) @printf(i8* getelementptr inbounds ([7 x i8], [7 x i8]* @.str.1, i64 0, i64 0), double %127)
  br label %129

129:                                              ; preds = %126
  %130 = load i32, i32* %3, align 4
  %131 = add nsw i32 %130, 1
  store i32 %131, i32* %3, align 4
  br label %98

132:                                              ; preds = %98
  ret i32 0
}

declare dso_local i32 @__isoc99_scanf(i8*, ...) #1

declare dso_local i32 @printf(i8*, ...) #1


!llvm.module.flags = !{!0}
!llvm.ident = !{!1}

!0 = !{i32 1, !"wchar_size", i32 4}
!1 = !{!"clang version 10.0.0-4ubuntu1 "}
